target datalayout = "e-m:e-p270:32:32-p271:32:32-p272:64:64-i64:64-i128:128-f80:128-n8:16:32:64-S128"
target triple = "x86_64-pc-linux-gnu"

%class.AudioRouting = type { i8, i32 }
%class.AudioRoutingFilter = type <{ %class.QIODevice, ptr, i8, [3 x i8], %class.AudioRouting, [4 x i8] }>
%class.QIODevice = type { %class.QObject }
%class.QObject = type { ptr, %class.QScopedPointer }
%class.QScopedPointer = type { ptr }

; Function Attrs: mustprogress null_pointer_is_valid sspstrong uwtable
define noundef zeroext i1 @_ZN18AudioRoutingFilter4seekEx(ptr noundef align 8 dereferenceable_or_null(36) %0, i64 noundef %1) unnamed_addr #0 align 2 {
  %3 = alloca i1, align 1
  %4 = alloca ptr, align 8
  %5 = alloca i64, align 8
  store ptr %0, ptr %4, align 8
  store i64 %1, ptr %5, align 8
  %6 = load ptr, ptr %4, align 8
  %7 = getelementptr inbounds nuw %class.AudioRoutingFilter, ptr %6, i32 0, i32 2
  %8 = load i8, ptr %7, align 8, !range !6, !noundef !7
  %9 = trunc i8 %8 to i1
  br i1 %9, label %18, label %10

10:                                               ; preds = %2
  %11 = getelementptr inbounds nuw %class.AudioRoutingFilter, ptr %6, i32 0, i32 1
  %12 = load ptr, ptr %11, align 8
  %13 = load i64, ptr %5, align 8
  %14 = load ptr, ptr %12, align 8
  %15 = getelementptr inbounds ptr, ptr %14, i64 17
  %16 = load ptr, ptr %15, align 8
  %17 = call noundef zeroext i1 %16(ptr noundef align 8 dereferenceable_or_null(16) %12, i64 noundef %13)
  store i1 %17, ptr %3, align 1
  br label %27

18:                                               ; preds = %2
  %19 = getelementptr inbounds nuw %class.AudioRoutingFilter, ptr %6, i32 0, i32 1
  %20 = load ptr, ptr %19, align 8
  %21 = load i64, ptr %5, align 8
  %22 = sdiv i64 %21, 2
  %23 = load ptr, ptr %20, align 8
  %24 = getelementptr inbounds ptr, ptr %23, i64 17
  %25 = load ptr, ptr %24, align 8
  %26 = call noundef zeroext i1 %25(ptr noundef align 8 dereferenceable_or_null(16) %20, i64 noundef %22)
  store i1 %26, ptr %3, align 1
  br label %27

27:                                               ; preds = %18, %10
  %28 = load i1, ptr %3, align 1
  ret i1 %28
}