; Function Attrs: mustprogress null_pointer_is_valid sspstrong uwtable
define noundef zeroext i1 @_ZN18AudioRoutingFilter4seekEx(ptr noundef readonly align 8 captures(none) dereferenceable_or_null(36) %0, i64 noundef %1) unnamed_addr #0 align 2 {
  %3 = getelementptr inbounds nuw i8, ptr %0, i64 24
  %4 = load i8, ptr %3, align 8, !range !6, !noundef !7
  %5 = trunc nuw i8 %4 to i1
  %6 = getelementptr inbounds nuw i8, ptr %0, i64 16
  %7 = load ptr, ptr %6, align 8
  %8 = sdiv i64 %1, 2
  %.sink = select i1 %5, i64 %8, i64 %1
  %9 = load ptr, ptr %7, align 8
  %10 = getelementptr inbounds nuw i8, ptr %9, i64 136
  %11 = load ptr, ptr %10, align 8
  %12 = tail call noundef zeroext i1 %11(ptr noundef align 8 dereferenceable_or_null(16) %7, i64 noundef %.sink)
  ret i1 %12
}